; Function Attrs: nounwind uwtable
define internal noundef i32 @ivf_write_trailer(ptr noundef readonly captures(none) %0) #0 {
  %2 = getelementptr inbounds nuw i8, ptr %0, i64 32
  %3 = load ptr, ptr %2, align 8, !tbaa !33
  %4 = getelementptr inbounds nuw i8, ptr %3, i64 144
  %5 = load i32, ptr %4, align 8, !tbaa !50
  %6 = and i32 %5, 1
  %.not = icmp eq i32 %6, 0
  br i1 %.not, label %14, label %7

7:                                                ; preds = %1
  %8 = getelementptr inbounds nuw i8, ptr %0, i64 24
  %9 = load ptr, ptr %8, align 8, !tbaa !41
  %10 = tail call i64 @avio_seek(ptr noundef nonnull %3, i64 noundef 0, i32 noundef 1) #2
  %11 = tail call i64 @avio_seek(ptr noundef nonnull %3, i64 noundef 24, i32 noundef 0) #2
  %12 = load i32, ptr %9, align 8, !tbaa !48
  tail call void @avio_wl32(ptr noundef nonnull %3, i32 noundef %12) #2
  %13 = tail call i64 @avio_seek(ptr noundef nonnull %3, i64 noundef %10, i32 noundef 0) #2
  br label %14

14:                                               ; preds = %7, %1
  ret i32 0
}